target datalayout = "e-m:e-p270:32:32-p271:32:32-p272:64:64-i64:64-i128:128-f80:128-n8:16:32:64-S128"
target triple = "x86_64-unknown-linux-gnu"

%"class.v8::IndirectHandleBase" = type { ptr }
%"class.v8::Local" = type { %"class.v8::LocalBase" }
%"class.v8::LocalBase" = type { %"class.v8::IndirectHandleBase" }
%"class.v8impl::(anonymous namespace)::CallbackWrapper" = type { ptr, ptr, i64, ptr }
%"class.v8impl::(anonymous namespace)::CallbackWrapperBase" = type { %"class.v8impl::(anonymous namespace)::CallbackWrapper", ptr, ptr }

; Function Attrs: mustprogress nounwind uwtable
define linkonce_odr dso_local noundef ptr @_ZN6v8impl23JsValueFromV8LocalValueEN2v85LocalINS0_5ValueEEE(ptr %local.coerce) #4 comdat {
entry:
  %slot.addr.i = alloca ptr, align 8
  %this.addr.i.i3 = alloca ptr, align 8
  %this.addr.i4 = alloca ptr, align 8
  %this.addr.i.i = alloca ptr, align 8
  %this.addr.i = alloca ptr, align 8
  %local = alloca %"class.v8::Local", align 8
  %coerce.dive = getelementptr inbounds %"class.v8::Local", ptr %local, i32 0, i32 0
  %coerce.dive1 = getelementptr inbounds %"class.v8::LocalBase", ptr %coerce.dive, i32 0, i32 0
  %coerce.dive2 = getelementptr inbounds %"class.v8::IndirectHandleBase", ptr %coerce.dive1, i32 0, i32 0
  store ptr %local.coerce, ptr %coerce.dive2, align 8
  store ptr %local, ptr %this.addr.i, align 8
  %this1.i = load ptr, ptr %this.addr.i, align 8
  store ptr %this1.i, ptr %this.addr.i.i, align 8
  %this1.i.i = load ptr, ptr %this.addr.i.i, align 8
  store ptr %this1.i.i, ptr %this.addr.i4, align 8
  %this1.i5 = load ptr, ptr %this.addr.i4, align 8
  store ptr %this1.i5, ptr %this.addr.i.i3, align 8
  %this1.i.i6 = load ptr, ptr %this.addr.i.i3, align 8
  %0 = load ptr, ptr %this1.i.i6, align 8
  store ptr %0, ptr %slot.addr.i, align 8
  %1 = load ptr, ptr %slot.addr.i, align 8
  ret ptr %1
}

; Function Attrs: mustprogress nounwind uwtable
define internal noundef ptr @_ZN6v8impl12_GLOBAL__N_123FunctionCallbackWrapper12GetNewTargetEv(ptr noundef nonnull align 8 dereferenceable(48) %this) unnamed_addr #4 align 2 {
entry:
  %slot.addr.i = alloca ptr, align 8
  %this.addr.i.i43 = alloca ptr, align 8
  %this.addr.i44 = alloca ptr, align 8
  %value.addr.i42 = alloca i64, align 8
  %shift_bits.i = alloca i32, align 4
  %heap_object_ptr.addr.i.i36 = alloca i64, align 8
  %offset.addr.i.i37 = alloca i32, align 4
  %addr.i.i38 = alloca i64, align 8
  %heap_object_ptr.addr.i = alloca i64, align 8
  %offset.addr.i = alloca i32, align 4
  %value.addr.i = alloca i64, align 8
  %obj.addr.i = alloca i64, align 8
  %heap_object_ptr.addr.i13.i = alloca i64, align 8
  %offset.addr.i14.i = alloca i32, align 4
  %addr.i15.i = alloca i64, align 8
  %heap_object_ptr.addr.i10.i = alloca i64, align 8
  %offset.addr.i11.i = alloca i32, align 4
  %addr.i.i = alloca i64, align 8
  %heap_object_ptr.addr.i.i = alloca i64, align 8
  %offset.addr.i.i = alloca i32, align 4
  %obj.addr.i.i = alloca i64, align 8
  %map.i.i = alloca i64, align 8
  %value.addr.i8.i = alloca i64, align 8
  %value.addr.i.i = alloca ptr, align 8
  %retval.i32 = alloca i1, align 1
  %this.addr.i33 = alloca ptr, align 8
  %obj.i = alloca i64, align 8
  %this.addr.i.i.i14 = alloca ptr, align 8
  %location.addr.i.i.i15 = alloca ptr, align 8
  %this.addr.i9.i16 = alloca ptr, align 8
  %location.addr.i.i17 = alloca ptr, align 8
  %this.addr.i.i18 = alloca ptr, align 8
  %other.addr.i.i19 = alloca ptr, align 8
  %retval.i7.i20 = alloca %"class.v8::LocalBase", align 8
  %slot.addr.i8.i21 = alloca ptr, align 8
  %retval.i.i22 = alloca %"class.v8::Local", align 8
  %slot.addr.i.i23 = alloca ptr, align 8
  %ref.tmp.i.i24 = alloca %"class.v8::LocalBase", align 8
  %retval.i25 = alloca %"class.v8::Local", align 8
  %this.addr.i26 = alloca ptr, align 8
  %this.addr.i.i.i = alloca ptr, align 8
  %location.addr.i.i.i = alloca ptr, align 8
  %this.addr.i9.i = alloca ptr, align 8
  %location.addr.i.i = alloca ptr, align 8
  %this.addr.i.i10 = alloca ptr, align 8
  %other.addr.i.i = alloca ptr, align 8
  %retval.i7.i = alloca %"class.v8::LocalBase", align 8
  %slot.addr.i8.i = alloca ptr, align 8
  %retval.i.i = alloca %"class.v8::Local", align 8
  %slot.addr.i.i = alloca ptr, align 8
  %ref.tmp.i.i = alloca %"class.v8::LocalBase", align 8
  %retval.i = alloca %"class.v8::Local", align 8
  %this.addr.i11 = alloca ptr, align 8
  %this.addr.i6.i = alloca ptr, align 8
  %this.addr.i.i = alloca ptr, align 8
  %this.addr.i = alloca ptr, align 8
  %ref.tmp.i = alloca %"class.v8::Local", align 8
  %retval = alloca ptr, align 8
  %this.addr = alloca ptr, align 8
  %agg.tmp = alloca %"class.v8::Local", align 8
  store ptr %this, ptr %this.addr, align 8
  %this1 = load ptr, ptr %this.addr, align 8
  %_cbinfo = getelementptr inbounds %"class.v8impl::(anonymous namespace)::CallbackWrapperBase", ptr %this1, i32 0, i32 1
  %0 = load ptr, ptr %_cbinfo, align 8
  store ptr %0, ptr %this.addr.i, align 8
  %this1.i = load ptr, ptr %this.addr.i, align 8
  store ptr %this1.i, ptr %this.addr.i11, align 8
  %this1.i12 = load ptr, ptr %this.addr.i11, align 8
  %1 = load ptr, ptr %this1.i12, align 8
  %arrayidx.i = getelementptr inbounds i64, ptr %1, i64 5
  store ptr %arrayidx.i, ptr %slot.addr.i.i, align 8
  %2 = load ptr, ptr %slot.addr.i.i, align 8
  store ptr %2, ptr %slot.addr.i8.i, align 8
  %3 = load ptr, ptr %slot.addr.i8.i, align 8
  store ptr %retval.i7.i, ptr %this.addr.i9.i, align 8
  store ptr %3, ptr %location.addr.i.i, align 8
  %this1.i10.i = load ptr, ptr %this.addr.i9.i, align 8
  %4 = load ptr, ptr %location.addr.i.i, align 8
  store ptr %this1.i10.i, ptr %this.addr.i.i.i, align 8
  store ptr %4, ptr %location.addr.i.i.i, align 8
  %this1.i.i.i = load ptr, ptr %this.addr.i.i.i, align 8
  %5 = load ptr, ptr %location.addr.i.i.i, align 8
  store ptr %5, ptr %this1.i.i.i, align 8
  %6 = load ptr, ptr %retval.i7.i, align 8
  store ptr %6, ptr %ref.tmp.i.i, align 8
  store ptr %retval.i.i, ptr %this.addr.i.i10, align 8
  store ptr %ref.tmp.i.i, ptr %other.addr.i.i, align 8
  %this1.i.i13 = load ptr, ptr %this.addr.i.i10, align 8
  %7 = load ptr, ptr %other.addr.i.i, align 8
  call void @llvm.memcpy.p0.p0.i64(ptr align 8 %this1.i.i13, ptr align 8 %7, i64 8, i1 false)
  %8 = load ptr, ptr %retval.i.i, align 8
  store ptr %8, ptr %retval.i, align 8
  %9 = load ptr, ptr %retval.i, align 8
  store ptr %9, ptr %ref.tmp.i, align 8
  store ptr %ref.tmp.i, ptr %this.addr.i.i, align 8
  %this1.i.i = load ptr, ptr %this.addr.i.i, align 8
  store ptr %this1.i.i, ptr %this.addr.i44, align 8
  %this1.i45 = load ptr, ptr %this.addr.i44, align 8
  store ptr %this1.i45, ptr %this.addr.i.i43, align 8
  %this1.i.i46 = load ptr, ptr %this.addr.i.i43, align 8
  %10 = load ptr, ptr %this1.i.i46, align 8
  store ptr %10, ptr %slot.addr.i, align 8
  %11 = load ptr, ptr %slot.addr.i, align 8
  store ptr %11, ptr %this.addr.i6.i, align 8
  %this1.i7.i = load ptr, ptr %this.addr.i6.i, align 8
  store ptr %this1.i7.i, ptr %this.addr.i33, align 8
  %this1.i34 = load ptr, ptr %this.addr.i33, align 8
  store ptr %this1.i34, ptr %value.addr.i.i, align 8
  %12 = load ptr, ptr %value.addr.i.i, align 8
  %13 = load i64, ptr %12, align 8
  store i64 %13, ptr %obj.i, align 8
  %14 = load i64, ptr %obj.i, align 8
  store i64 %14, ptr %value.addr.i8.i, align 8
  %15 = load i64, ptr %value.addr.i8.i, align 8
  %and.i.i = and i64 %15, 3
  %cmp.i.i = icmp eq i64 %and.i.i, 1
  br i1 %cmp.i.i, label %if.end.i, label %if.then.i

if.then.i:                                        ; preds = %entry
  store i1 false, ptr %retval.i32, align 1
  br label %_ZNK2v85Value16QuickIsUndefinedEv.exit

if.end.i:                                         ; preds = %entry
  %16 = load i64, ptr %obj.i, align 8
  store i64 %16, ptr %obj.addr.i.i, align 8
  %17 = load i64, ptr %obj.addr.i.i, align 8
  store i64 %17, ptr %heap_object_ptr.addr.i.i, align 8
  store i32 0, ptr %offset.addr.i.i, align 4
  %18 = load i64, ptr %heap_object_ptr.addr.i.i, align 8
  %19 = load i32, ptr %offset.addr.i.i, align 4
  store i64 %18, ptr %heap_object_ptr.addr.i13.i, align 8
  store i32 %19, ptr %offset.addr.i14.i, align 4
  %20 = load i64, ptr %heap_object_ptr.addr.i13.i, align 8
  %21 = load i32, ptr %offset.addr.i14.i, align 4
  %conv.i16.i = sext i32 %21 to i64
  %add.i17.i = add i64 %20, %conv.i16.i
  %sub.i18.i = sub i64 %add.i17.i, 1
  store i64 %sub.i18.i, ptr %addr.i15.i, align 8
  %22 = load i64, ptr %addr.i15.i, align 8
  %23 = inttoptr i64 %22 to ptr
  %24 = load i64, ptr %23, align 8
  store i64 %24, ptr %map.i.i, align 8
  %25 = load i64, ptr %map.i.i, align 8
  store i64 %25, ptr %heap_object_ptr.addr.i10.i, align 8
  store i32 12, ptr %offset.addr.i11.i, align 4
  %26 = load i64, ptr %heap_object_ptr.addr.i10.i, align 8
  %27 = load i32, ptr %offset.addr.i11.i, align 4
  %conv.i12.i = sext i32 %27 to i64
  %add.i.i = add i64 %26, %conv.i12.i
  %sub.i.i = sub i64 %add.i.i, 1
  store i64 %sub.i.i, ptr %addr.i.i, align 8
  %28 = load i64, ptr %addr.i.i, align 8
  %29 = inttoptr i64 %28 to ptr
  %30 = load i16, ptr %29, align 2
  %conv.i.i = zext i16 %30 to i32
  %cmp.i = icmp ne i32 %conv.i.i, 131
  br i1 %cmp.i, label %if.then4.i, label %if.end5.i

if.then4.i:                                       ; preds = %if.end.i
  store i1 false, ptr %retval.i32, align 1
  br label %_ZNK2v85Value16QuickIsUndefinedEv.exit

if.end5.i:                                        ; preds = %if.end.i
  %31 = load i64, ptr %obj.i, align 8
  store i64 %31, ptr %obj.addr.i, align 8
  %32 = load i64, ptr %obj.addr.i, align 8
  store i64 %32, ptr %heap_object_ptr.addr.i, align 8
  store i32 40, ptr %offset.addr.i, align 4
  %33 = load i64, ptr %heap_object_ptr.addr.i, align 8
  %34 = load i32, ptr %offset.addr.i, align 4
  store i64 %33, ptr %heap_object_ptr.addr.i.i36, align 8
  store i32 %34, ptr %offset.addr.i.i37, align 4
  %35 = load i64, ptr %heap_object_ptr.addr.i.i36, align 8
  %36 = load i32, ptr %offset.addr.i.i37, align 4
  %conv.i.i39 = sext i32 %36 to i64
  %add.i.i40 = add i64 %35, %conv.i.i39
  %sub.i.i41 = sub i64 %add.i.i40, 1
  store i64 %sub.i.i41, ptr %addr.i.i38, align 8
  %37 = load i64, ptr %addr.i.i38, align 8
  %38 = inttoptr i64 %37 to ptr
  %39 = load i64, ptr %38, align 8
  store i64 %39, ptr %value.addr.i, align 8
  %40 = load i64, ptr %value.addr.i, align 8
  store i64 %40, ptr %value.addr.i42, align 8
  store i32 32, ptr %shift_bits.i, align 4
  %41 = load i64, ptr %value.addr.i42, align 8
  %42 = load i32, ptr %shift_bits.i, align 4
  %sh_prom.i = zext i32 %42 to i64
  %shr.i = ashr i64 %41, %sh_prom.i
  %conv.i = trunc i64 %shr.i to i32
  %cmp7.i = icmp eq i32 %conv.i, 5
  store i1 %cmp7.i, ptr %retval.i32, align 1
  br label %_ZNK2v85Value16QuickIsUndefinedEv.exit

_ZNK2v85Value16QuickIsUndefinedEv.exit:           ; preds = %if.end5.i, %if.then4.i, %if.then.i
  %43 = load i1, ptr %retval.i32, align 1
  %lnot.i = xor i1 %43, true
  br i1 %lnot.i, label %if.then, label %if.else

if.then:                                          ; preds = %_ZNK2v85Value16QuickIsUndefinedEv.exit
  %_cbinfo2 = getelementptr inbounds %"class.v8impl::(anonymous namespace)::CallbackWrapperBase", ptr %this1, i32 0, i32 1
  %44 = load ptr, ptr %_cbinfo2, align 8
  store ptr %44, ptr %this.addr.i26, align 8
  %this1.i27 = load ptr, ptr %this.addr.i26, align 8
  %45 = load ptr, ptr %this1.i27, align 8
  %arrayidx.i28 = getelementptr inbounds i64, ptr %45, i64 5
  store ptr %arrayidx.i28, ptr %slot.addr.i.i23, align 8
  %46 = load ptr, ptr %slot.addr.i.i23, align 8
  store ptr %46, ptr %slot.addr.i8.i21, align 8
  %47 = load ptr, ptr %slot.addr.i8.i21, align 8
  store ptr %retval.i7.i20, ptr %this.addr.i9.i16, align 8
  store ptr %47, ptr %location.addr.i.i17, align 8
  %this1.i10.i29 = load ptr, ptr %this.addr.i9.i16, align 8
  %48 = load ptr, ptr %location.addr.i.i17, align 8
  store ptr %this1.i10.i29, ptr %this.addr.i.i.i14, align 8
  store ptr %48, ptr %location.addr.i.i.i15, align 8
  %this1.i.i.i30 = load ptr, ptr %this.addr.i.i.i14, align 8
  %49 = load ptr, ptr %location.addr.i.i.i15, align 8
  store ptr %49, ptr %this1.i.i.i30, align 8
  %50 = load ptr, ptr %retval.i7.i20, align 8
  store ptr %50, ptr %ref.tmp.i.i24, align 8
  store ptr %retval.i.i22, ptr %this.addr.i.i18, align 8
  store ptr %ref.tmp.i.i24, ptr %other.addr.i.i19, align 8
  %this1.i.i31 = load ptr, ptr %this.addr.i.i18, align 8
  %51 = load ptr, ptr %other.addr.i.i19, align 8
  call void @llvm.memcpy.p0.p0.i64(ptr align 8 %this1.i.i31, ptr align 8 %51, i64 8, i1 false)
  %52 = load ptr, ptr %retval.i.i22, align 8
  store ptr %52, ptr %retval.i25, align 8
  %53 = load ptr, ptr %retval.i25, align 8
  %coerce.dive = getelementptr inbounds %"class.v8::Local", ptr %agg.tmp, i32 0, i32 0
  %coerce.dive4 = getelementptr inbounds %"class.v8::LocalBase", ptr %coerce.dive, i32 0, i32 0
  %coerce.dive5 = getelementptr inbounds %"class.v8::IndirectHandleBase", ptr %coerce.dive4, i32 0, i32 0
  store ptr %53, ptr %coerce.dive5, align 8
  %coerce.dive6 = getelementptr inbounds %"class.v8::Local", ptr %agg.tmp, i32 0, i32 0
  %coerce.dive7 = getelementptr inbounds %"class.v8::LocalBase", ptr %coerce.dive6, i32 0, i32 0
  %coerce.dive8 = getelementptr inbounds %"class.v8::IndirectHandleBase", ptr %coerce.dive7, i32 0, i32 0
  %54 = load ptr, ptr %coerce.dive8, align 8
  %call9 = call noundef ptr @_ZN6v8impl23JsValueFromV8LocalValueEN2v85LocalINS0_5ValueEEE(ptr %54)
  store ptr %call9, ptr %retval, align 8
  br label %return

if.else:                                          ; preds = %_ZNK2v85Value16QuickIsUndefinedEv.exit
  store ptr null, ptr %retval, align 8
  br label %return

return:                                           ; preds = %if.else, %if.then
  %55 = load ptr, ptr %retval, align 8
  ret ptr %55
}