; Function Attrs: mustprogress nofree norecurse nosync nounwind willreturn memory(read, inaccessiblemem: none) uwtable
define internal noundef ptr @_ZN6v8impl12_GLOBAL__N_123FunctionCallbackWrapper12GetNewTargetEv(ptr nocapture noundef nonnull readonly align 8 dereferenceable(48) %this) unnamed_addr #17 align 2 {
entry:
  %_cbinfo = getelementptr inbounds i8, ptr %this, i64 32
  %0 = load ptr, ptr %_cbinfo, align 8
  %1 = load ptr, ptr %0, align 8
  %arrayidx.i = getelementptr inbounds i8, ptr %1, i64 40
  %2 = load i64, ptr %arrayidx.i, align 8
  %and.i.i = and i64 %2, 3
  %cmp.i.i = icmp eq i64 %and.i.i, 1
  br i1 %cmp.i.i, label %if.end.i, label %if.then

if.end.i:                                         ; preds = %entry
  %sub.i18.i = add nsw i64 %2, -1
  %3 = inttoptr i64 %sub.i18.i to ptr
  %4 = load i64, ptr %3, align 8
  %sub.i.i = add i64 %4, 11
  %5 = inttoptr i64 %sub.i.i to ptr
  %6 = load i16, ptr %5, align 2
  %cmp.i.not = icmp eq i16 %6, 131
  br i1 %cmp.i.not, label %if.end5.i, label %if.then

if.end5.i:                                        ; preds = %if.end.i
  %sub.i.i41 = add i64 %2, 39
  %7 = inttoptr i64 %sub.i.i41 to ptr
  %8 = load i64, ptr %7, align 8
  %shr.i.mask = and i64 %8, -4294967296
  %cmp7.i.not = icmp eq i64 %shr.i.mask, 21474836480
  br i1 %cmp7.i.not, label %return, label %if.then

if.then:                                          ; preds = %entry, %if.end.i, %if.end5.i
  br label %return

return:                                           ; preds = %if.end5.i, %if.then
  %retval.0 = phi ptr [ %arrayidx.i, %if.then ], [ null, %if.end5.i ]
  ret ptr %retval.0
}